; ModuleID = '14/1027.c'
source_filename = "14/1027.c"
target datalayout = "e-m:e-p270:32:32-p271:32:32-p272:64:64-i64:64-f80:128-n8:16:32:64-S128"
target triple = "x86_64-pc-linux-gnu"

%struct.student = type { i32, i32, i32, %struct.student* }

@.str = private unnamed_addr constant [3 x i8] c"%d\00", align 1
@.str.1 = private unnamed_addr constant [9 x i8] c"%d %d %d\00", align 1
@.str.2 = private unnamed_addr constant [7 x i8] c"%d %d\0A\00", align 1

; Function Attrs: noinline nounwind uwtable
define dso_local void @main() #0 {
  %1 = alloca i32, align 4
  %2 = alloca i32, align 4
  %3 = alloca i32, align 4
  %4 = alloca %struct.student*, align 8
  %5 = alloca %struct.student*, align 8
  %6 = alloca %struct.student*, align 8
  store i32 0, i32* %3, align 4
  %7 = call i32 (i8*, ...) @__isoc99_scanf(i8* getelementptr inbounds ([3 x i8], [3 x i8]* @.str, i64 0, i64 0), i32* %1)
  %8 = call noalias i8* @malloc(i64 100) #3
  %9 = bitcast i8* %8 to %struct.student*
  store %struct.student* %9, %struct.student** %6, align 8
  store %struct.student* %9, %struct.student** %5, align 8
  store %struct.student* %9, %struct.student** %4, align 8
  store i32 0, i32* %2, align 4
  br label %10

10:                                               ; preds = %28, %0
  %11 = load i32, i32* %2, align 4
  %12 = load i32, i32* %1, align 4
  %13 = icmp slt i32 %11, %12
  br i1 %13, label %14, label %31

14:                                               ; preds = %10
  %15 = load %struct.student*, %struct.student** %5, align 8
  %16 = getelementptr inbounds %struct.student, %struct.student* %15, i32 0, i32 0
  %17 = load %struct.student*, %struct.student** %5, align 8
  %18 = getelementptr inbounds %struct.student, %struct.student* %17, i32 0, i32 1
  %19 = load %struct.student*, %struct.student** %5, align 8
  %20 = getelementptr inbounds %struct.student, %struct.student* %19, i32 0, i32 2
  %21 = call i32 (i8*, ...) @__isoc99_scanf(i8* getelementptr inbounds ([9 x i8], [9 x i8]* @.str.1, i64 0, i64 0), i32* %16, i32* %18, i32* %20)
  %22 = call noalias i8* @malloc(i64 100) #3
  %23 = bitcast i8* %22 to %struct.student*
  store %struct.student* %23, %struct.student** %5, align 8
  %24 = load %struct.student*, %struct.student** %5, align 8
  %25 = load %struct.student*, %struct.student** %6, align 8
  %26 = getelementptr inbounds %struct.student, %struct.student* %25, i32 0, i32 3
  store %struct.student* %24, %struct.student** %26, align 8
  %27 = load %struct.student*, %struct.student** %5, align 8
  store %struct.student* %27, %struct.student** %6, align 8
  br label %28

28:                                               ; preds = %14
  %29 = load i32, i32* %2, align 4
  %30 = add nsw i32 %29, 1
  store i32 %30, i32* %2, align 4
  br label %10

31:                                               ; preds = %10
  %32 = load %struct.student*, %struct.student** %6, align 8
  %33 = getelementptr inbounds %struct.student, %struct.student* %32, i32 0, i32 3
  store %struct.student* null, %struct.student** %33, align 8
  %34 = load %struct.student*, %struct.student** %4, align 8
  store %struct.student* %34, %struct.student** %5, align 8
  store i32 200, i32* %2, align 4
  br label %35

35:                                               ; preds = %74, %31
  %36 = load i32, i32* %2, align 4
  %37 = icmp sgt i32 %36, 10
  br i1 %37, label %38, label %77

38:                                               ; preds = %35
  %39 = load %struct.student*, %struct.student** %4, align 8
  store %struct.student* %39, %struct.student** %5, align 8
  br label %40

40:                                               ; preds = %68, %38
  %41 = load %struct.student*, %struct.student** %5, align 8
  %42 = icmp ne %struct.student* %41, null
  br i1 %42, label %43, label %69

43:                                               ; preds = %40
  %44 = load %struct.student*, %struct.student** %5, align 8
  %45 = getelementptr inbounds %struct.student, %struct.student* %44, i32 0, i32 1
  %46 = load i32, i32* %45, align 4
  %47 = load %struct.student*, %struct.student** %5, align 8
  %48 = getelementptr inbounds %struct.student, %struct.student* %47, i32 0, i32 2
  %49 = load i32, i32* %48, align 8
  %50 = add nsw i32 %46, %49
  %51 = load i32, i32* %2, align 4
  %52 = icmp eq i32 %50, %51
  br i1 %52, label %53, label %61

53:                                               ; preds = %43
  %54 = load %struct.student*, %struct.student** %5, align 8
  %55 = getelementptr inbounds %struct.student, %struct.student* %54, i32 0, i32 0
  %56 = load i32, i32* %55, align 8
  %57 = load i32, i32* %2, align 4
  %58 = call i32 (i8*, ...) @printf(i8* getelementptr inbounds ([7 x i8], [7 x i8]* @.str.2, i64 0, i64 0), i32 %56, i32 %57)
  %59 = load i32, i32* %3, align 4
  %60 = add nsw i32 %59, 1
  store i32 %60, i32* %3, align 4
  br label %61

61:                                               ; preds = %53, %43
  %62 = load %struct.student*, %struct.student** %5, align 8
  %63 = getelementptr inbounds %struct.student, %struct.student* %62, i32 0, i32 3
  %64 = load %struct.student*, %struct.student** %63, align 8
  store %struct.student* %64, %struct.student** %5, align 8
  %65 = load i32, i32* %3, align 4
  %66 = icmp eq i32 %65, 3
  br i1 %66, label %67, label %68

67:                                               ; preds = %61
  br label %69

68:                                               ; preds = %61
  br label %40

69:                                               ; preds = %67, %40
  %70 = load i32, i32* %3, align 4
  %71 = icmp eq i32 %70, 3
  br i1 %71, label %72, label %73

72:                                               ; preds = %69
  br label %77

73:                                               ; preds = %69
  br label %74

74:                                               ; preds = %73
  %75 = load i32, i32* %2, align 4
  %76 = add nsw i32 %75, -1
  store i32 %76, i32* %2, align 4
  br label %35

77:                                               ; preds = %72, %35
  ret void
}

declare dso_local i32 @__isoc99_scanf(i8*, ...) #1

; Function Attrs: nounwind
declare dso_local noalias i8* @malloc(i64) #2

declare dso_local i32 @printf(i8*, ...) #1


!llvm.module.flags = !{!0}
!llvm.ident = !{!1}

!0 = !{i32 1, !"wchar_size", i32 4}
!1 = !{!"clang version 10.0.0-4ubuntu1 "}
